target datalayout = "e-m:e-p270:32:32-p271:32:32-p272:64:64-i64:64-i128:128-f80:128-n8:16:32:64-S128"
target triple = "x86_64-pc-linux-gnu"

%struct.__va_list_tag = type { i32, i32, ptr, ptr }

; Function Attrs: mustprogress noreturn uwtable
define dso_local void @_Z11luaL_errorLP9lua_StatePKcz(ptr noundef %0, ptr noundef %1, ...) #0 {
  %3 = alloca ptr, align 8
  %4 = alloca ptr, align 8
  %5 = alloca [1 x %struct.__va_list_tag], align 16
  store ptr %0, ptr %3, align 8
  store ptr %1, ptr %4, align 8
  %6 = getelementptr inbounds [1 x %struct.__va_list_tag], ptr %5, i64 0, i64 0
  call void @llvm.va_start.p0(ptr %6)
  %7 = load ptr, ptr %3, align 8
  call void @_Z10luaL_whereP9lua_Statei(ptr noundef %7, i32 noundef 1)
  %8 = load ptr, ptr %3, align 8
  %9 = load ptr, ptr %4, align 8
  %10 = getelementptr inbounds [1 x %struct.__va_list_tag], ptr %5, i64 0, i64 0
  %11 = call noundef ptr @_Z16lua_pushvfstringP9lua_StatePKcP13__va_list_tag(ptr noundef %8, ptr noundef %9, ptr noundef %10)
  %12 = getelementptr inbounds [1 x %struct.__va_list_tag], ptr %5, i64 0, i64 0
  call void @llvm.va_end.p0(ptr %12)
  %13 = load ptr, ptr %3, align 8
  call void @_Z10lua_concatP9lua_Statei(ptr noundef %13, i32 noundef 2)
  %14 = load ptr, ptr %3, align 8
  call void @_Z9lua_errorP9lua_State(ptr noundef %14) #8
  unreachable
}