; Function Attrs: mustprogress noreturn uwtable
define dso_local void @_Z11luaL_errorLP9lua_StatePKcz(ptr noundef %0, ptr noundef %1, ...) local_unnamed_addr #0 {
  %3 = alloca [1 x %struct.__va_list_tag], align 16
  call void @llvm.va_start.p0(ptr nonnull %3)
  call void @_Z10luaL_whereP9lua_Statei(ptr noundef %0, i32 noundef 1)
  %4 = call noundef ptr @_Z16lua_pushvfstringP9lua_StatePKcP13__va_list_tag(ptr noundef %0, ptr noundef %1, ptr noundef nonnull %3)
  call void @llvm.va_end.p0(ptr nonnull %3)
  call void @_Z10lua_concatP9lua_Statei(ptr noundef %0, i32 noundef 2)
  call void @_Z9lua_errorP9lua_State(ptr noundef %0) #11
  unreachable
}